$ objdump -D goodluck 

goodluck:     file format elf32-i386


Disassembly of section .init:

00000650 <_init>:
 650:	53                   	push   %ebx
 651:	83 ec 08             	sub    $0x8,%esp
 654:	e8 c7 01 00 00       	call   820 <__x86.get_pc_thunk.bx>
 659:	81 c3 a7 29 00 00    	add    $0x29a7,%ebx
 65f:	8b 83 ec ff ff ff    	mov    -0x14(%ebx),%eax
 665:	85 c0                	test   %eax,%eax
 667:	74 05                	je     66e <_init+0x1e>
 669:	e8 6a 01 00 00       	call   7d8 <close@plt+0x18>
 66e:	83 c4 08             	add    $0x8,%esp
 671:	5b                   	pop    %ebx
 672:	c3                   	ret    

Disassembly of section .plt:

00000680 <read@plt-0x10>:
 680:	ff b3 04 00 00 00    	pushl  0x4(%ebx)
 686:	ff a3 08 00 00 00    	jmp    *0x8(%ebx)
 68c:	00 00                	add    %al,(%eax)
	...

00000690 <read@plt>:
 690:	ff a3 0c 00 00 00    	jmp    *0xc(%ebx)
 696:	68 00 00 00 00       	push   $0x0
 69b:	e9 e0 ff ff ff       	jmp    680 <_init+0x30>

000006a0 <printf@plt>:
 6a0:	ff a3 10 00 00 00    	jmp    *0x10(%ebx)
 6a6:	68 08 00 00 00       	push   $0x8
 6ab:	e9 d0 ff ff ff       	jmp    680 <_init+0x30>

000006b0 <fflush@plt>:
 6b0:	ff a3 14 00 00 00    	jmp    *0x14(%ebx)
 6b6:	68 10 00 00 00       	push   $0x10
 6bb:	e9 c0 ff ff ff       	jmp    680 <_init+0x30>

000006c0 <getchar@plt>:
 6c0:	ff a3 18 00 00 00    	jmp    *0x18(%ebx)
 6c6:	68 18 00 00 00       	push   $0x18
 6cb:	e9 b0 ff ff ff       	jmp    680 <_init+0x30>

000006d0 <fclose@plt>:
 6d0:	ff a3 1c 00 00 00    	jmp    *0x1c(%ebx)
 6d6:	68 20 00 00 00       	push   $0x20
 6db:	e9 a0 ff ff ff       	jmp    680 <_init+0x30>

000006e0 <time@plt>:
 6e0:	ff a3 20 00 00 00    	jmp    *0x20(%ebx)
 6e6:	68 28 00 00 00       	push   $0x28
 6eb:	e9 90 ff ff ff       	jmp    680 <_init+0x30>

000006f0 <gettimeofday@plt>:
 6f0:	ff a3 24 00 00 00    	jmp    *0x24(%ebx)
 6f6:	68 30 00 00 00       	push   $0x30
 6fb:	e9 80 ff ff ff       	jmp    680 <_init+0x30>

00000700 <sleep@plt>:
 700:	ff a3 28 00 00 00    	jmp    *0x28(%ebx)
 706:	68 38 00 00 00       	push   $0x38
 70b:	e9 70 ff ff ff       	jmp    680 <_init+0x30>

00000710 <fread@plt>:
 710:	ff a3 2c 00 00 00    	jmp    *0x2c(%ebx)
 716:	68 40 00 00 00       	push   $0x40
 71b:	e9 60 ff ff ff       	jmp    680 <_init+0x30>

00000720 <puts@plt>:
 720:	ff a3 30 00 00 00    	jmp    *0x30(%ebx)
 726:	68 48 00 00 00       	push   $0x48
 72b:	e9 50 ff ff ff       	jmp    680 <_init+0x30>

00000730 <exit@plt>:
 730:	ff a3 34 00 00 00    	jmp    *0x34(%ebx)
 736:	68 50 00 00 00       	push   $0x50
 73b:	e9 40 ff ff ff       	jmp    680 <_init+0x30>

00000740 <open@plt>:
 740:	ff a3 38 00 00 00    	jmp    *0x38(%ebx)
 746:	68 58 00 00 00       	push   $0x58
 74b:	e9 30 ff ff ff       	jmp    680 <_init+0x30>

00000750 <srand@plt>:
 750:	ff a3 3c 00 00 00    	jmp    *0x3c(%ebx)
 756:	68 60 00 00 00       	push   $0x60
 75b:	e9 20 ff ff ff       	jmp    680 <_init+0x30>

00000760 <__libc_start_main@plt>:
 760:	ff a3 40 00 00 00    	jmp    *0x40(%ebx)
 766:	68 68 00 00 00       	push   $0x68
 76b:	e9 10 ff ff ff       	jmp    680 <_init+0x30>

00000770 <fopen@plt>:
 770:	ff a3 44 00 00 00    	jmp    *0x44(%ebx)
 776:	68 70 00 00 00       	push   $0x70
 77b:	e9 00 ff ff ff       	jmp    680 <_init+0x30>

00000780 <memset@plt>:
 780:	ff a3 48 00 00 00    	jmp    *0x48(%ebx)
 786:	68 78 00 00 00       	push   $0x78
 78b:	e9 f0 fe ff ff       	jmp    680 <_init+0x30>

00000790 <strncpy@plt>:
 790:	ff a3 4c 00 00 00    	jmp    *0x4c(%ebx)
 796:	68 80 00 00 00       	push   $0x80
 79b:	e9 e0 fe ff ff       	jmp    680 <_init+0x30>

000007a0 <rand@plt>:
 7a0:	ff a3 50 00 00 00    	jmp    *0x50(%ebx)
 7a6:	68 88 00 00 00       	push   $0x88
 7ab:	e9 d0 fe ff ff       	jmp    680 <_init+0x30>

000007b0 <__isoc99_scanf@plt>:
 7b0:	ff a3 54 00 00 00    	jmp    *0x54(%ebx)
 7b6:	68 90 00 00 00       	push   $0x90
 7bb:	e9 c0 fe ff ff       	jmp    680 <_init+0x30>

000007c0 <close@plt>:
 7c0:	ff a3 58 00 00 00    	jmp    *0x58(%ebx)
 7c6:	68 98 00 00 00       	push   $0x98
 7cb:	e9 b0 fe ff ff       	jmp    680 <_init+0x30>

Disassembly of section .plt.got:

000007d0 <.plt.got>:
 7d0:	ff a3 e8 ff ff ff    	jmp    *-0x18(%ebx)
 7d6:	66 90                	xchg   %ax,%ax
 7d8:	ff a3 ec ff ff ff    	jmp    *-0x14(%ebx)
 7de:	66 90                	xchg   %ax,%ax

Disassembly of section .text:

000007e0 <_start>:
 7e0:	31 ed                	xor    %ebp,%ebp
 7e2:	5e                   	pop    %esi
 7e3:	89 e1                	mov    %esp,%ecx
 7e5:	83 e4 f0             	and    $0xfffffff0,%esp
 7e8:	50                   	push   %eax
 7e9:	54                   	push   %esp
 7ea:	52                   	push   %edx
 7eb:	e8 22 00 00 00       	call   812 <_start+0x32>
 7f0:	81 c3 10 28 00 00    	add    $0x2810,%ebx
 7f6:	8d 83 20 df ff ff    	lea    -0x20e0(%ebx),%eax
 7fc:	50                   	push   %eax
 7fd:	8d 83 c0 de ff ff    	lea    -0x2140(%ebx),%eax
 803:	50                   	push   %eax
 804:	51                   	push   %ecx
 805:	56                   	push   %esi
 806:	ff b3 f4 ff ff ff    	pushl  -0xc(%ebx)
 80c:	e8 4f ff ff ff       	call   760 <__libc_start_main@plt>
 811:	f4                   	hlt    
 812:	8b 1c 24             	mov    (%esp),%ebx
 815:	c3                   	ret    
 816:	66 90                	xchg   %ax,%ax
 818:	66 90                	xchg   %ax,%ax
 81a:	66 90                	xchg   %ax,%ax
 81c:	66 90                	xchg   %ax,%ax
 81e:	66 90                	xchg   %ax,%ax

00000820 <__x86.get_pc_thunk.bx>:
 820:	8b 1c 24             	mov    (%esp),%ebx
 823:	c3                   	ret    
 824:	66 90                	xchg   %ax,%ax
 826:	66 90                	xchg   %ax,%ax
 828:	66 90                	xchg   %ax,%ax
 82a:	66 90                	xchg   %ax,%ax
 82c:	66 90                	xchg   %ax,%ax
 82e:	66 90                	xchg   %ax,%ax

00000830 <deregister_tm_clones>:
 830:	e8 17 01 00 00       	call   94c <__x86.get_pc_thunk.dx>
 835:	81 c2 cb 27 00 00    	add    $0x27cb,%edx
 83b:	8d 8a 64 00 00 00    	lea    0x64(%edx),%ecx
 841:	8d 82 67 00 00 00    	lea    0x67(%edx),%eax
 847:	29 c8                	sub    %ecx,%eax
 849:	83 f8 06             	cmp    $0x6,%eax
 84c:	76 17                	jbe    865 <deregister_tm_clones+0x35>
 84e:	8b 82 e4 ff ff ff    	mov    -0x1c(%edx),%eax
 854:	85 c0                	test   %eax,%eax
 856:	74 0d                	je     865 <deregister_tm_clones+0x35>
 858:	55                   	push   %ebp
 859:	89 e5                	mov    %esp,%ebp
 85b:	83 ec 14             	sub    $0x14,%esp
 85e:	51                   	push   %ecx
 85f:	ff d0                	call   *%eax
 861:	83 c4 10             	add    $0x10,%esp
 864:	c9                   	leave  
 865:	f3 c3                	repz ret 
 867:	89 f6                	mov    %esi,%esi
 869:	8d bc 27 00 00 00 00 	lea    0x0(%edi,%eiz,1),%edi

00000870 <register_tm_clones>:
 870:	e8 d7 00 00 00       	call   94c <__x86.get_pc_thunk.dx>
 875:	81 c2 8b 27 00 00    	add    $0x278b,%edx
 87b:	55                   	push   %ebp
 87c:	8d 8a 64 00 00 00    	lea    0x64(%edx),%ecx
 882:	8d 82 64 00 00 00    	lea    0x64(%edx),%eax
 888:	89 e5                	mov    %esp,%ebp
 88a:	53                   	push   %ebx
 88b:	29 c8                	sub    %ecx,%eax
 88d:	c1 f8 02             	sar    $0x2,%eax
 890:	83 ec 04             	sub    $0x4,%esp
 893:	89 c3                	mov    %eax,%ebx
 895:	c1 eb 1f             	shr    $0x1f,%ebx
 898:	01 d8                	add    %ebx,%eax
 89a:	d1 f8                	sar    %eax
 89c:	74 14                	je     8b2 <register_tm_clones+0x42>
 89e:	8b 92 fc ff ff ff    	mov    -0x4(%edx),%edx
 8a4:	85 d2                	test   %edx,%edx
 8a6:	74 0a                	je     8b2 <register_tm_clones+0x42>
 8a8:	83 ec 08             	sub    $0x8,%esp
 8ab:	50                   	push   %eax
 8ac:	51                   	push   %ecx
 8ad:	ff d2                	call   *%edx
 8af:	83 c4 10             	add    $0x10,%esp
 8b2:	8b 5d fc             	mov    -0x4(%ebp),%ebx
 8b5:	c9                   	leave  
 8b6:	c3                   	ret    
 8b7:	89 f6                	mov    %esi,%esi
 8b9:	8d bc 27 00 00 00 00 	lea    0x0(%edi,%eiz,1),%edi

000008c0 <__do_global_dtors_aux>:
 8c0:	55                   	push   %ebp
 8c1:	89 e5                	mov    %esp,%ebp
 8c3:	53                   	push   %ebx
 8c4:	e8 57 ff ff ff       	call   820 <__x86.get_pc_thunk.bx>
 8c9:	81 c3 37 27 00 00    	add    $0x2737,%ebx
 8cf:	83 ec 04             	sub    $0x4,%esp
 8d2:	80 bb 64 00 00 00 00 	cmpb   $0x0,0x64(%ebx)
 8d9:	75 27                	jne    902 <__do_global_dtors_aux+0x42>
 8db:	8b 83 e8 ff ff ff    	mov    -0x18(%ebx),%eax
 8e1:	85 c0                	test   %eax,%eax
 8e3:	74 11                	je     8f6 <__do_global_dtors_aux+0x36>
 8e5:	83 ec 0c             	sub    $0xc,%esp
 8e8:	ff b3 60 00 00 00    	pushl  0x60(%ebx)
 8ee:	e8 dd fe ff ff       	call   7d0 <close@plt+0x10>
 8f3:	83 c4 10             	add    $0x10,%esp
 8f6:	e8 35 ff ff ff       	call   830 <deregister_tm_clones>
 8fb:	c6 83 64 00 00 00 01 	movb   $0x1,0x64(%ebx)
 902:	8b 5d fc             	mov    -0x4(%ebp),%ebx
 905:	c9                   	leave  
 906:	c3                   	ret    
 907:	89 f6                	mov    %esi,%esi
 909:	8d bc 27 00 00 00 00 	lea    0x0(%edi,%eiz,1),%edi

00000910 <frame_dummy>:
 910:	e8 37 00 00 00       	call   94c <__x86.get_pc_thunk.dx>
 915:	81 c2 eb 26 00 00    	add    $0x26eb,%edx
 91b:	8d 82 f0 fe ff ff    	lea    -0x110(%edx),%eax
 921:	8b 08                	mov    (%eax),%ecx
 923:	85 c9                	test   %ecx,%ecx
 925:	75 09                	jne    930 <frame_dummy+0x20>
 927:	e9 44 ff ff ff       	jmp    870 <register_tm_clones>
 92c:	8d 74 26 00          	lea    0x0(%esi,%eiz,1),%esi
 930:	8b 92 f8 ff ff ff    	mov    -0x8(%edx),%edx
 936:	85 d2                	test   %edx,%edx
 938:	74 ed                	je     927 <frame_dummy+0x17>
 93a:	55                   	push   %ebp
 93b:	89 e5                	mov    %esp,%ebp
 93d:	83 ec 14             	sub    $0x14,%esp
 940:	50                   	push   %eax
 941:	ff d2                	call   *%edx
 943:	83 c4 10             	add    $0x10,%esp
 946:	c9                   	leave  
 947:	e9 24 ff ff ff       	jmp    870 <register_tm_clones>

0000094c <__x86.get_pc_thunk.dx>:
 94c:	8b 14 24             	mov    (%esp),%edx
 94f:	c3                   	ret    

00000950 <flushit>:
 950:	55                   	push   %ebp
 951:	89 e5                	mov    %esp,%ebp
 953:	53                   	push   %ebx
 954:	83 ec 14             	sub    $0x14,%esp
 957:	e8 c4 fe ff ff       	call   820 <__x86.get_pc_thunk.bx>
 95c:	81 c3 a4 26 00 00    	add    $0x26a4,%ebx
 962:	90                   	nop
 963:	e8 58 fd ff ff       	call   6c0 <getchar@plt>
 968:	88 45 f7             	mov    %al,-0x9(%ebp)
 96b:	80 7d f7 0a          	cmpb   $0xa,-0x9(%ebp)
 96f:	74 06                	je     977 <flushit+0x27>
 971:	80 7d f7 ff          	cmpb   $0xff,-0x9(%ebp)
 975:	75 ec                	jne    963 <flushit+0x13>
 977:	90                   	nop
 978:	83 c4 14             	add    $0x14,%esp
 97b:	5b                   	pop    %ebx
 97c:	5d                   	pop    %ebp
 97d:	c3                   	ret    

0000097e <printmaps>:
 97e:	55                   	push   %ebp
 97f:	89 e5                	mov    %esp,%ebp
 981:	53                   	push   %ebx
 982:	81 ec c4 0b 00 00    	sub    $0xbc4,%esp
 988:	e8 93 fe ff ff       	call   820 <__x86.get_pc_thunk.bx>
 98d:	81 c3 73 26 00 00    	add    $0x2673,%ebx
 993:	83 ec 08             	sub    $0x8,%esp
 996:	6a 00                	push   $0x0
 998:	8d 83 40 df ff ff    	lea    -0x20c0(%ebx),%eax
 99e:	50                   	push   %eax
 99f:	e8 9c fd ff ff       	call   740 <open@plt>
 9a4:	83 c4 10             	add    $0x10,%esp
 9a7:	89 45 f0             	mov    %eax,-0x10(%ebp)
 9aa:	83 7d f0 00          	cmpl   $0x0,-0x10(%ebp)
 9ae:	75 0a                	jne    9ba <printmaps+0x3c>
 9b0:	83 ec 0c             	sub    $0xc,%esp
 9b3:	6a 01                	push   $0x1
 9b5:	e8 76 fd ff ff       	call   730 <exit@plt>
 9ba:	83 ec 04             	sub    $0x4,%esp
 9bd:	68 b8 0b 00 00       	push   $0xbb8
 9c2:	6a 00                	push   $0x0
 9c4:	8d 85 38 f4 ff ff    	lea    -0xbc8(%ebp),%eax
 9ca:	50                   	push   %eax
 9cb:	e8 b0 fd ff ff       	call   780 <memset@plt>
 9d0:	83 c4 10             	add    $0x10,%esp
 9d3:	83 ec 04             	sub    $0x4,%esp
 9d6:	68 ae 0b 00 00       	push   $0xbae
 9db:	8d 85 38 f4 ff ff    	lea    -0xbc8(%ebp),%eax
 9e1:	50                   	push   %eax
 9e2:	ff 75 f0             	pushl  -0x10(%ebp)
 9e5:	e8 a6 fc ff ff       	call   690 <read@plt>
 9ea:	83 c4 10             	add    $0x10,%esp
 9ed:	83 ec 0c             	sub    $0xc,%esp
 9f0:	ff 75 f0             	pushl  -0x10(%ebp)
 9f3:	e8 c8 fd ff ff       	call   7c0 <close@plt>
 9f8:	83 c4 10             	add    $0x10,%esp
 9fb:	c7 45 f4 00 00 00 00 	movl   $0x0,-0xc(%ebp)
 a02:	eb 26                	jmp    a2a <printmaps+0xac>
 a04:	8d 95 38 f4 ff ff    	lea    -0xbc8(%ebp),%edx
 a0a:	8b 45 f4             	mov    -0xc(%ebp),%eax
 a0d:	01 d0                	add    %edx,%eax
 a0f:	0f b6 00             	movzbl (%eax),%eax
 a12:	84 c0                	test   %al,%al
 a14:	79 10                	jns    a26 <printmaps+0xa8>
 a16:	8d 95 38 f4 ff ff    	lea    -0xbc8(%ebp),%edx
 a1c:	8b 45 f4             	mov    -0xc(%ebp),%eax
 a1f:	01 d0                	add    %edx,%eax
 a21:	c6 00 00             	movb   $0x0,(%eax)
 a24:	eb 0d                	jmp    a33 <printmaps+0xb5>
 a26:	83 45 f4 01          	addl   $0x1,-0xc(%ebp)
 a2a:	81 7d f4 b7 0b 00 00 	cmpl   $0xbb7,-0xc(%ebp)
 a31:	7e d1                	jle    a04 <printmaps+0x86>
 a33:	83 ec 08             	sub    $0x8,%esp
 a36:	8d 85 38 f4 ff ff    	lea    -0xbc8(%ebp),%eax
 a3c:	50                   	push   %eax
 a3d:	8d 83 50 df ff ff    	lea    -0x20b0(%ebx),%eax
 a43:	50                   	push   %eax
 a44:	e8 57 fc ff ff       	call   6a0 <printf@plt>
 a49:	83 c4 10             	add    $0x10,%esp
 a4c:	90                   	nop
 a4d:	8b 5d fc             	mov    -0x4(%ebp),%ebx
 a50:	c9                   	leave  
 a51:	c3                   	ret    

00000a52 <copy>:
 a52:	55                   	push   %ebp
 a53:	89 e5                	mov    %esp,%ebp
 a55:	53                   	push   %ebx
 a56:	83 ec 14             	sub    $0x14,%esp
 a59:	e8 c2 fd ff ff       	call   820 <__x86.get_pc_thunk.bx>
 a5e:	81 c3 a2 25 00 00    	add    $0x25a2,%ebx
 a64:	83 ec 08             	sub    $0x8,%esp
 a67:	8d 83 56 df ff ff    	lea    -0x20aa(%ebx),%eax
 a6d:	50                   	push   %eax
 a6e:	ff 75 08             	pushl  0x8(%ebp)
 a71:	e8 fa fc ff ff       	call   770 <fopen@plt>
 a76:	83 c4 10             	add    $0x10,%esp
 a79:	89 45 f4             	mov    %eax,-0xc(%ebp)
 a7c:	83 7d f4 00          	cmpl   $0x0,-0xc(%ebp)
 a80:	75 0a                	jne    a8c <copy+0x3a>
 a82:	83 ec 0c             	sub    $0xc,%esp
 a85:	6a 01                	push   $0x1
 a87:	e8 a4 fc ff ff       	call   730 <exit@plt>
 a8c:	8b 45 10             	mov    0x10(%ebp),%eax
 a8f:	ff 75 f4             	pushl  -0xc(%ebp)
 a92:	6a 01                	push   $0x1
 a94:	50                   	push   %eax
 a95:	ff 75 0c             	pushl  0xc(%ebp)
 a98:	e8 73 fc ff ff       	call   710 <fread@plt>
 a9d:	83 c4 10             	add    $0x10,%esp
 aa0:	83 ec 0c             	sub    $0xc,%esp
 aa3:	ff 75 f4             	pushl  -0xc(%ebp)
 aa6:	e8 25 fc ff ff       	call   6d0 <fclose@plt>
 aab:	83 c4 10             	add    $0x10,%esp
 aae:	90                   	nop
 aaf:	8b 5d fc             	mov    -0x4(%ebp),%ebx
 ab2:	c9                   	leave  
 ab3:	c3                   	ret    

00000ab4 <createusername>:
 ab4:	55                   	push   %ebp
 ab5:	89 e5                	mov    %esp,%ebp
 ab7:	53                   	push   %ebx
 ab8:	83 ec 34             	sub    $0x34,%esp
 abb:	e8 60 fd ff ff       	call   820 <__x86.get_pc_thunk.bx>
 ac0:	81 c3 40 25 00 00    	add    $0x2540,%ebx
 ac6:	83 ec 0c             	sub    $0xc,%esp
 ac9:	8d 83 59 df ff ff    	lea    -0x20a7(%ebx),%eax
 acf:	50                   	push   %eax
 ad0:	e8 cb fb ff ff       	call   6a0 <printf@plt>
 ad5:	83 c4 10             	add    $0x10,%esp
 ad8:	83 ec 08             	sub    $0x8,%esp
 adb:	8d 45 d6             	lea    -0x2a(%ebp),%eax
 ade:	50                   	push   %eax
 adf:	8d 83 66 df ff ff    	lea    -0x209a(%ebx),%eax
 ae5:	50                   	push   %eax
 ae6:	e8 c5 fc ff ff       	call   7b0 <__isoc99_scanf@plt>
 aeb:	83 c4 10             	add    $0x10,%esp
 aee:	e8 5d fe ff ff       	call   950 <flushit>
 af3:	83 ec 04             	sub    $0x4,%esp
 af6:	6a 0c                	push   $0xc
 af8:	8d 45 f4             	lea    -0xc(%ebp),%eax
 afb:	50                   	push   %eax
 afc:	8d 45 d6             	lea    -0x2a(%ebp),%eax
 aff:	50                   	push   %eax
 b00:	e8 4d ff ff ff       	call   a52 <copy>
 b05:	83 c4 10             	add    $0x10,%esp
 b08:	83 ec 04             	sub    $0x4,%esp
 b0b:	6a 05                	push   $0x5
 b0d:	8d 45 f4             	lea    -0xc(%ebp),%eax
 b10:	50                   	push   %eax
 b11:	8d 83 68 00 00 00    	lea    0x68(%ebx),%eax
 b17:	50                   	push   %eax
 b18:	e8 73 fc ff ff       	call   790 <strncpy@plt>
 b1d:	83 c4 10             	add    $0x10,%esp
 b20:	8d 83 68 00 00 00    	lea    0x68(%ebx),%eax
 b26:	c6 40 05 00          	movb   $0x0,0x5(%eax)
 b2a:	90                   	nop
 b2b:	8b 5d fc             	mov    -0x4(%ebp),%ebx
 b2e:	c9                   	leave  
 b2f:	c3                   	ret    

00000b30 <print>:
 b30:	55                   	push   %ebp
 b31:	89 e5                	mov    %esp,%ebp
 b33:	53                   	push   %ebx
 b34:	83 ec 14             	sub    $0x14,%esp
 b37:	e8 e4 fc ff ff       	call   820 <__x86.get_pc_thunk.bx>
 b3c:	81 c3 c4 24 00 00    	add    $0x24c4,%ebx
 b42:	c6 45 f7 00          	movb   $0x0,-0x9(%ebp)
 b46:	83 ec 0c             	sub    $0xc,%esp
 b49:	8d 83 6c df ff ff    	lea    -0x2094(%ebx),%eax
 b4f:	50                   	push   %eax
 b50:	e8 4b fb ff ff       	call   6a0 <printf@plt>
 b55:	83 c4 10             	add    $0x10,%esp
 b58:	8b 83 f0 ff ff ff    	mov    -0x10(%ebx),%eax
 b5e:	8b 00                	mov    (%eax),%eax
 b60:	83 ec 0c             	sub    $0xc,%esp
 b63:	50                   	push   %eax
 b64:	e8 47 fb ff ff       	call   6b0 <fflush@plt>
 b69:	83 c4 10             	add    $0x10,%esp
 b6c:	83 ec 08             	sub    $0x8,%esp
 b6f:	8d 45 f7             	lea    -0x9(%ebp),%eax
 b72:	50                   	push   %eax
 b73:	8d 83 e1 df ff ff    	lea    -0x201f(%ebx),%eax
 b79:	50                   	push   %eax
 b7a:	e8 31 fc ff ff       	call   7b0 <__isoc99_scanf@plt>
 b7f:	83 c4 10             	add    $0x10,%esp
 b82:	e8 c9 fd ff ff       	call   950 <flushit>
 b87:	0f b6 45 f7          	movzbl -0x9(%ebp),%eax
 b8b:	0f be c0             	movsbl %al,%eax
 b8e:	83 e8 31             	sub    $0x31,%eax
 b91:	83 f8 04             	cmp    $0x4,%eax
 b94:	77 31                	ja     bc7 <.L21+0x7>
 b96:	c1 e0 02             	shl    $0x2,%eax
 b99:	8b 84 18 10 e0 ff ff 	mov    -0x1ff0(%eax,%ebx,1),%eax
 ba0:	01 d8                	add    %ebx,%eax
 ba2:	ff e0                	jmp    *%eax

00000ba4 <.L16>:
 ba4:	b8 31 00 00 00       	mov    $0x31,%eax
 ba9:	eb 33                	jmp    bde <.L21+0x1e>

00000bab <.L18>:
 bab:	b8 32 00 00 00       	mov    $0x32,%eax
 bb0:	eb 2c                	jmp    bde <.L21+0x1e>

00000bb2 <.L19>:
 bb2:	b8 33 00 00 00       	mov    $0x33,%eax
 bb7:	eb 25                	jmp    bde <.L21+0x1e>

00000bb9 <.L20>:
 bb9:	b8 34 00 00 00       	mov    $0x34,%eax
 bbe:	eb 1e                	jmp    bde <.L21+0x1e>

00000bc0 <.L21>:
 bc0:	b8 35 00 00 00       	mov    $0x35,%eax
 bc5:	eb 17                	jmp    bde <.L21+0x1e>
 bc7:	83 ec 0c             	sub    $0xc,%esp
 bca:	8d 83 e8 df ff ff    	lea    -0x2018(%ebx),%eax
 bd0:	50                   	push   %eax
 bd1:	e8 4a fb ff ff       	call   720 <puts@plt>
 bd6:	83 c4 10             	add    $0x10,%esp
 bd9:	b8 00 00 00 00       	mov    $0x0,%eax
 bde:	8b 5d fc             	mov    -0x4(%ebp),%ebx
 be1:	c9                   	leave  
 be2:	c3                   	ret    

00000be3 <printdeb>:
 be3:	55                   	push   %ebp
 be4:	89 e5                	mov    %esp,%ebp
 be6:	53                   	push   %ebx
 be7:	83 ec 04             	sub    $0x4,%esp
 bea:	e8 be 02 00 00       	call   ead <__x86.get_pc_thunk.ax>
 bef:	05 11 24 00 00       	add    $0x2411,%eax
 bf4:	83 ec 08             	sub    $0x8,%esp
 bf7:	ff 75 08             	pushl  0x8(%ebp)
 bfa:	8d 90 24 e0 ff ff    	lea    -0x1fdc(%eax),%edx
 c00:	52                   	push   %edx
 c01:	89 c3                	mov    %eax,%ebx
 c03:	e8 98 fa ff ff       	call   6a0 <printf@plt>
 c08:	83 c4 10             	add    $0x10,%esp
 c0b:	90                   	nop
 c0c:	8b 5d fc             	mov    -0x4(%ebp),%ebx
 c0f:	c9                   	leave  
 c10:	c3                   	ret    

00000c11 <debug>:
 c11:	55                   	push   %ebp
 c12:	89 e5                	mov    %esp,%ebp
 c14:	53                   	push   %ebx
 c15:	83 ec 64             	sub    $0x64,%esp
 c18:	e8 03 fc ff ff       	call   820 <__x86.get_pc_thunk.bx>
 c1d:	81 c3 e3 23 00 00    	add    $0x23e3,%ebx
 c23:	83 ec 0c             	sub    $0xc,%esp
 c26:	8d 83 38 e0 ff ff    	lea    -0x1fc8(%ebx),%eax
 c2c:	50                   	push   %eax
 c2d:	e8 ee fa ff ff       	call   720 <puts@plt>
 c32:	83 c4 10             	add    $0x10,%esp
 c35:	83 ec 0c             	sub    $0xc,%esp
 c38:	8d 83 64 e0 ff ff    	lea    -0x1f9c(%ebx),%eax
 c3e:	50                   	push   %eax
 c3f:	e8 dc fa ff ff       	call   720 <puts@plt>
 c44:	83 c4 10             	add    $0x10,%esp
 c47:	83 ec 08             	sub    $0x8,%esp
 c4a:	8d 45 b8             	lea    -0x48(%ebp),%eax
 c4d:	50                   	push   %eax
 c4e:	8d 83 b2 e0 ff ff    	lea    -0x1f4e(%ebx),%eax
 c54:	50                   	push   %eax
 c55:	e8 46 fa ff ff       	call   6a0 <printf@plt>
 c5a:	83 c4 10             	add    $0x10,%esp
 c5d:	83 ec 08             	sub    $0x8,%esp
 c60:	8d 45 b8             	lea    -0x48(%ebp),%eax
 c63:	50                   	push   %eax
 c64:	8d 83 d0 e0 ff ff    	lea    -0x1f30(%ebx),%eax
 c6a:	50                   	push   %eax
 c6b:	e8 30 fa ff ff       	call   6a0 <printf@plt>
 c70:	83 c4 10             	add    $0x10,%esp
 c73:	e8 06 fd ff ff       	call   97e <printmaps>
 c78:	83 ec 0c             	sub    $0xc,%esp
 c7b:	8d 83 59 df ff ff    	lea    -0x20a7(%ebx),%eax
 c81:	50                   	push   %eax
 c82:	e8 19 fa ff ff       	call   6a0 <printf@plt>
 c87:	83 c4 10             	add    $0x10,%esp
 c8a:	83 ec 08             	sub    $0x8,%esp
 c8d:	8d 45 9a             	lea    -0x66(%ebp),%eax
 c90:	50                   	push   %eax
 c91:	8d 83 66 df ff ff    	lea    -0x209a(%ebx),%eax
 c97:	50                   	push   %eax
 c98:	e8 13 fb ff ff       	call   7b0 <__isoc99_scanf@plt>
 c9d:	83 c4 10             	add    $0x10,%esp
 ca0:	e8 ab fc ff ff       	call   950 <flushit>
 ca5:	83 ec 04             	sub    $0x4,%esp
 ca8:	6a 64                	push   $0x64
 caa:	8d 45 b8             	lea    -0x48(%ebp),%eax
 cad:	50                   	push   %eax
 cae:	8d 45 9a             	lea    -0x66(%ebp),%eax
 cb1:	50                   	push   %eax
 cb2:	e8 9b fd ff ff       	call   a52 <copy>
 cb7:	83 c4 10             	add    $0x10,%esp
 cba:	90                   	nop
 cbb:	8b 5d fc             	mov    -0x4(%ebp),%ebx
 cbe:	c9                   	leave  
 cbf:	c3                   	ret    

00000cc0 <attempt_login>:
 cc0:	55                   	push   %ebp
 cc1:	89 e5                	mov    %esp,%ebp
 cc3:	53                   	push   %ebx
 cc4:	83 ec 04             	sub    $0x4,%esp
 cc7:	e8 54 fb ff ff       	call   820 <__x86.get_pc_thunk.bx>
 ccc:	81 c3 34 23 00 00    	add    $0x2334,%ebx
 cd2:	8b 45 10             	mov    0x10(%ebp),%eax
 cd5:	3b 45 0c             	cmp    0xc(%ebp),%eax
 cd8:	74 33                	je     d0d <attempt_login+0x4d>
 cda:	83 ec 0c             	sub    $0xc,%esp
 cdd:	8d 83 f4 e0 ff ff    	lea    -0x1f0c(%ebx),%eax
 ce3:	50                   	push   %eax
 ce4:	e8 b7 f9 ff ff       	call   6a0 <printf@plt>
 ce9:	83 c4 10             	add    $0x10,%esp
 cec:	8b 83 f0 ff ff ff    	mov    -0x10(%ebx),%eax
 cf2:	8b 00                	mov    (%eax),%eax
 cf4:	83 ec 0c             	sub    $0xc,%esp
 cf7:	50                   	push   %eax
 cf8:	e8 b3 f9 ff ff       	call   6b0 <fflush@plt>
 cfd:	83 c4 10             	add    $0x10,%esp
 d00:	83 ec 0c             	sub    $0xc,%esp
 d03:	68 9a 02 00 00       	push   $0x29a
 d08:	e8 23 fa ff ff       	call   730 <exit@plt>
 d0d:	83 7d 08 00          	cmpl   $0x0,0x8(%ebp)
 d11:	75 28                	jne    d3b <attempt_login+0x7b>
 d13:	83 ec 0c             	sub    $0xc,%esp
 d16:	8d 83 00 e1 ff ff    	lea    -0x1f00(%ebx),%eax
 d1c:	50                   	push   %eax
 d1d:	e8 fe f9 ff ff       	call   720 <puts@plt>
 d22:	83 c4 10             	add    $0x10,%esp
 d25:	8b 83 f0 ff ff ff    	mov    -0x10(%ebx),%eax
 d2b:	8b 00                	mov    (%eax),%eax
 d2d:	83 ec 0c             	sub    $0xc,%esp
 d30:	50                   	push   %eax
 d31:	e8 7a f9 ff ff       	call   6b0 <fflush@plt>
 d36:	83 c4 10             	add    $0x10,%esp
 d39:	eb 05                	jmp    d40 <attempt_login+0x80>
 d3b:	e8 d1 fe ff ff       	call   c11 <debug>
 d40:	90                   	nop
 d41:	8b 5d fc             	mov    -0x4(%ebp),%ebx
 d44:	c9                   	leave  
 d45:	c3                   	ret    

00000d46 <printstr>:
 d46:	55                   	push   %ebp
 d47:	89 e5                	mov    %esp,%ebp
 d49:	53                   	push   %ebx
 d4a:	83 ec 04             	sub    $0x4,%esp
 d4d:	e8 5b 01 00 00       	call   ead <__x86.get_pc_thunk.ax>
 d52:	05 ae 22 00 00       	add    $0x22ae,%eax
 d57:	83 ec 04             	sub    $0x4,%esp
 d5a:	ff 75 0c             	pushl  0xc(%ebp)
 d5d:	ff 75 08             	pushl  0x8(%ebp)
 d60:	8d 90 10 e1 ff ff    	lea    -0x1ef0(%eax),%edx
 d66:	52                   	push   %edx
 d67:	89 c3                	mov    %eax,%ebx
 d69:	e8 32 f9 ff ff       	call   6a0 <printf@plt>
 d6e:	83 c4 10             	add    $0x10,%esp
 d71:	90                   	nop
 d72:	8b 5d fc             	mov    -0x4(%ebp),%ebx
 d75:	c9                   	leave  
 d76:	c3                   	ret    

00000d77 <main>:
 d77:	8d 4c 24 04          	lea    0x4(%esp),%ecx
 d7b:	83 e4 f0             	and    $0xfffffff0,%esp
 d7e:	ff 71 fc             	pushl  -0x4(%ecx)
 d81:	55                   	push   %ebp
 d82:	89 e5                	mov    %esp,%ebp
 d84:	53                   	push   %ebx
 d85:	51                   	push   %ecx
 d86:	83 ec 20             	sub    $0x20,%esp
 d89:	e8 92 fa ff ff       	call   820 <__x86.get_pc_thunk.bx>
 d8e:	81 c3 72 22 00 00    	add    $0x2272,%ebx
 d94:	6a 01                	push   $0x1
 d96:	68 d6 ad 03 00       	push   $0x3add6
 d9b:	68 00 a0 e1 b7       	push   $0xb7e1a000
 da0:	e8 ab bf ef 37       	call   37efcd50 <_end+0x37ef9cd0>
 da5:	83 c4 0c             	add    $0xc,%esp
 da8:	6a 05                	push   $0x5
 daa:	68 00 a0 03 00       	push   $0x3a000
 daf:	68 00 a0 e1 b7       	push   $0xb7e1a000
 db4:	e8 97 bf ef 37       	call   37efcd50 <_end+0x37ef9cd0>
 db9:	83 c4 0c             	add    $0xc,%esp
 dbc:	83 ec 0c             	sub    $0xc,%esp
 dbf:	6a 02                	push   $0x2
 dc1:	e8 3a f9 ff ff       	call   700 <sleep@plt>
 dc6:	83 c4 10             	add    $0x10,%esp
 dc9:	83 ec 0c             	sub    $0xc,%esp
 dcc:	6a 00                	push   $0x0
 dce:	e8 0d f9 ff ff       	call   6e0 <time@plt>
 dd3:	83 c4 10             	add    $0x10,%esp
 dd6:	83 ec 0c             	sub    $0xc,%esp
 dd9:	50                   	push   %eax
 dda:	e8 71 f9 ff ff       	call   750 <srand@plt>
 ddf:	83 c4 10             	add    $0x10,%esp
 de2:	e8 b9 f9 ff ff       	call   7a0 <rand@plt>
 de7:	89 45 f4             	mov    %eax,-0xc(%ebp)
 dea:	83 ec 08             	sub    $0x8,%esp
 ded:	6a 00                	push   $0x0
 def:	8d 45 e0             	lea    -0x20(%ebp),%eax
 df2:	50                   	push   %eax
 df3:	e8 f8 f8 ff ff       	call   6f0 <gettimeofday@plt>
 df8:	83 c4 10             	add    $0x10,%esp
 dfb:	c7 45 f0 00 00 00 00 	movl   $0x0,-0x10(%ebp)
 e02:	8b 45 e4             	mov    -0x1c(%ebp),%eax
 e05:	0d 01 01 01 01       	or     $0x1010101,%eax
 e0a:	89 45 ec             	mov    %eax,-0x14(%ebp)
 e0d:	8d 83 68 00 00 00    	lea    0x68(%ebx),%eax
 e13:	8b 55 ec             	mov    -0x14(%ebp),%edx
 e16:	89 50 0c             	mov    %edx,0xc(%eax)
 e19:	8d 83 68 00 00 00    	lea    0x68(%ebx),%eax
 e1f:	8b 55 f4             	mov    -0xc(%ebp),%edx
 e22:	89 50 14             	mov    %edx,0x14(%eax)
 e25:	8d 83 68 00 00 00    	lea    0x68(%ebx),%eax
 e2b:	c7 40 10 00 00 00 00 	movl   $0x0,0x10(%eax)
 e32:	e8 7d fc ff ff       	call   ab4 <createusername>
 e37:	e8 f4 fc ff ff       	call   b30 <print>
 e3c:	88 45 eb             	mov    %al,-0x15(%ebp)
 e3f:	80 7d eb 31          	cmpb   $0x31,-0x15(%ebp)
 e43:	74 f2                	je     e37 <main+0xc0>
 e45:	80 7d eb 32          	cmpb   $0x32,-0x15(%ebp)
 e49:	75 17                	jne    e62 <main+0xeb>
 e4b:	8d 83 68 00 00 00    	lea    0x68(%ebx),%eax
 e51:	8b 40 14             	mov    0x14(%eax),%eax
 e54:	83 ec 0c             	sub    $0xc,%esp
 e57:	50                   	push   %eax
 e58:	e8 86 fd ff ff       	call   be3 <printdeb>
 e5d:	83 c4 10             	add    $0x10,%esp
 e60:	eb d5                	jmp    e37 <main+0xc0>
 e62:	80 7d eb 33          	cmpb   $0x33,-0x15(%ebp)
 e66:	75 24                	jne    e8c <main+0x115>
 e68:	8d 83 68 00 00 00    	lea    0x68(%ebx),%eax
 e6e:	8b 50 0c             	mov    0xc(%eax),%edx
 e71:	8d 83 68 00 00 00    	lea    0x68(%ebx),%eax
 e77:	8b 40 10             	mov    0x10(%eax),%eax
 e7a:	83 ec 04             	sub    $0x4,%esp
 e7d:	52                   	push   %edx
 e7e:	ff 75 ec             	pushl  -0x14(%ebp)
 e81:	50                   	push   %eax
 e82:	e8 39 fe ff ff       	call   cc0 <attempt_login>
 e87:	83 c4 10             	add    $0x10,%esp
 e8a:	eb ab                	jmp    e37 <main+0xc0>
 e8c:	80 7d eb 34          	cmpb   $0x34,-0x15(%ebp)
 e90:	75 07                	jne    e99 <main+0x122>
 e92:	e8 1d fc ff ff       	call   ab4 <createusername>
 e97:	eb 9e                	jmp    e37 <main+0xc0>
 e99:	80 7d eb 35          	cmpb   $0x35,-0x15(%ebp)
 e9d:	74 02                	je     ea1 <main+0x12a>
 e9f:	eb 96                	jmp    e37 <main+0xc0>
 ea1:	90                   	nop
 ea2:	90                   	nop
 ea3:	8d 65 f8             	lea    -0x8(%ebp),%esp
 ea6:	59                   	pop    %ecx
 ea7:	5b                   	pop    %ebx
 ea8:	5d                   	pop    %ebp
 ea9:	8d 61 fc             	lea    -0x4(%ecx),%esp
 eac:	c3                   	ret    

00000ead <__x86.get_pc_thunk.ax>:
 ead:	8b 04 24             	mov    (%esp),%eax
 eb0:	c3                   	ret    
 eb1:	66 90                	xchg   %ax,%ax
 eb3:	66 90                	xchg   %ax,%ax
 eb5:	66 90                	xchg   %ax,%ax
 eb7:	66 90                	xchg   %ax,%ax
 eb9:	66 90                	xchg   %ax,%ax
 ebb:	66 90                	xchg   %ax,%ax
 ebd:	66 90                	xchg   %ax,%ax
 ebf:	90                   	nop

00000ec0 <__libc_csu_init>:
 ec0:	55                   	push   %ebp
 ec1:	57                   	push   %edi
 ec2:	56                   	push   %esi
 ec3:	53                   	push   %ebx
 ec4:	e8 57 f9 ff ff       	call   820 <__x86.get_pc_thunk.bx>
 ec9:	81 c3 37 21 00 00    	add    $0x2137,%ebx
 ecf:	83 ec 0c             	sub    $0xc,%esp
 ed2:	8b 6c 24 20          	mov    0x20(%esp),%ebp
 ed6:	8d b3 ec fe ff ff    	lea    -0x114(%ebx),%esi
 edc:	e8 6f f7 ff ff       	call   650 <_init>
 ee1:	8d 83 e8 fe ff ff    	lea    -0x118(%ebx),%eax
 ee7:	29 c6                	sub    %eax,%esi
 ee9:	c1 fe 02             	sar    $0x2,%esi
 eec:	85 f6                	test   %esi,%esi
 eee:	74 25                	je     f15 <__libc_csu_init+0x55>
 ef0:	31 ff                	xor    %edi,%edi
 ef2:	8d b6 00 00 00 00    	lea    0x0(%esi),%esi
 ef8:	83 ec 04             	sub    $0x4,%esp
 efb:	ff 74 24 2c          	pushl  0x2c(%esp)
 eff:	ff 74 24 2c          	pushl  0x2c(%esp)
 f03:	55                   	push   %ebp
 f04:	ff 94 bb e8 fe ff ff 	call   *-0x118(%ebx,%edi,4)
 f0b:	83 c7 01             	add    $0x1,%edi
 f0e:	83 c4 10             	add    $0x10,%esp
 f11:	39 fe                	cmp    %edi,%esi
 f13:	75 e3                	jne    ef8 <__libc_csu_init+0x38>
 f15:	83 c4 0c             	add    $0xc,%esp
 f18:	5b                   	pop    %ebx
 f19:	5e                   	pop    %esi
 f1a:	5f                   	pop    %edi
 f1b:	5d                   	pop    %ebp
 f1c:	c3                   	ret    
 f1d:	8d 76 00             	lea    0x0(%esi),%esi

00000f20 <__libc_csu_fini>:
 f20:	f3 c3                	repz ret 

Disassembly of section .fini:

00000f24 <_fini>:
 f24:	53                   	push   %ebx
 f25:	83 ec 08             	sub    $0x8,%esp
 f28:	e8 f3 f8 ff ff       	call   820 <__x86.get_pc_thunk.bx>
 f2d:	81 c3 d3 20 00 00    	add    $0x20d3,%ebx
 f33:	83 c4 08             	add    $0x8,%esp
 f36:	5b                   	pop    %ebx
 f37:	c3                   	ret    
